(lp0
Vhttp://001.readthedocs.org/
p1
aVhttp://007-spectre.readthedocs.org/
p2
aVhttp://007-spectre-film-complet-en-francais.readthedocs.org/
p3
aVhttp://0bin.readthedocs.org/
p4
aVhttp://0x007-demo.readthedocs.org/
p5
aVhttp://0x42c.readthedocs.org/
p6
aVhttp://1.readthedocs.org/
p7
aVhttp://10000hrs.readthedocs.org/
p8
aVhttp://100800pxl-hunger-games-la-revolte-partie-2-en-streaming-online.readthedocs.org/
p9
aVhttp://1-103.readthedocs.org/
p10
aVhttp://111.readthedocs.org/
p11
aVhttp://11111111111111111111.readthedocs.org/
p12
aVhttp://1-111-20.readthedocs.org/
p13
aVhttp://1152695512qqcom-demo.readthedocs.org/
p14
aVhttp://115wangpan.readthedocs.org/
p15
aVhttp://11ten-doc.readthedocs.org/
p16
aVhttp://11ten-docs.readthedocs.org/
p17
aVhttp://12306.readthedocs.org/
p18
aVhttp://1231.readthedocs.org/
p19
aVhttp://15-diy-bedroom-decor-ideas.readthedocs.org/
p20
aVhttp://15puzzle.readthedocs.org/
p21
aVhttp://1816-utils.readthedocs.org/
p22
aVhttp://1b-idp.readthedocs.org/
p23
aVhttp://1c-management-small-firm.readthedocs.org/
p24
aVhttp://1scraper-docs.readthedocs.org/
p25
aVhttp://1scrapper.readthedocs.org/
p26
aVhttp://1stalphaomega.readthedocs.org/
p27
aVhttp://2013-caltech-workshop.readthedocs.org/
p28
aVhttp://2013-cse801.readthedocs.org/
p29
aVhttp://2013-msu-zero-entry.readthedocs.org/
p30
aVhttp://2013-norwich-bioinfo.readthedocs.org/
p31
aVhttp://2013-norwich-biology.readthedocs.org/
p32
aVhttp://2013-sqer.readthedocs.org/
p33
aVhttp://2013-sqer-tgac.readthedocs.org/
p34
aVhttp://2013-swc-az.readthedocs.org/
p35
aVhttp://2013-swc-uw-ctb.readthedocs.org/
p36
aVhttp://2013-uw-zero-entry.readthedocs.org/
p37
aVhttp://2014-5-metagenomics-workshop.readthedocs.org/
p38
aVhttp://2014-argonne-soils-automation-workshop.readthedocs.org/
p39
aVhttp://2014c2.readthedocs.org/
p40
aVhttp://2014-msu-rnaseq.readthedocs.org/
p41
aVhttp://2015-09-10-leeds.readthedocs.org/
p42
aVhttp://2015824-leetcode.readthedocs.org/
p43
aVhttp://2015-blog.readthedocs.org/
p44
aVhttp://2015-cibnor-ngs.readthedocs.org/
p45
aVhttp://2015cotto-vs-canelo-live-stream-fight.readthedocs.org/
p46
aVhttp://2015-example.readthedocs.org/
p47
aVhttp://2015-mar-semimodel.readthedocs.org/
p48
aVhttp://2015-may-nonmodel.readthedocs.org/
p49
aVhttp://2015-oct-nonmodel.readthedocs.org/
p50
a.